(i__main__
SongData
p1
(dp2
S'music'
p3
S'C:\\Users\\digiholic\\git\\universalSmashSystem\\music\\The Void - Lost Language (Original Edit).ogg'
p4
sS'name'
p5
S'The Void - Lost Language (NCS Release)'
p6
sS'probability'
p7
I100
sb.